; Function Attrs: mustprogress nofree norecurse nosync nounwind willreturn memory(readwrite, inaccessiblemem: none) uwtable
define internal ptr @arrayconst_next_fn(ptr noundef readonly captures(none) %0) #6 {
  %2 = load ptr, ptr %0, align 8
  %3 = getelementptr inbounds nuw i8, ptr %2, i64 88
  %4 = load i32, ptr %3, align 8
  %5 = getelementptr inbounds nuw i8, ptr %2, i64 92
  %6 = load i32, ptr %5, align 4
  %.not = icmp slt i32 %4, %6
  br i1 %.not, label %7, label %20

7:                                                ; preds = %1
  %8 = getelementptr inbounds nuw i8, ptr %2, i64 96
  %9 = load ptr, ptr %8, align 8
  %10 = sext i32 %4 to i64
  %11 = getelementptr inbounds i64, ptr %9, i64 %10
  %12 = load i64, ptr %11, align 8
  %13 = getelementptr inbounds nuw i8, ptr %2, i64 72
  store i64 %12, ptr %13, align 8
  %14 = getelementptr inbounds nuw i8, ptr %2, i64 104
  %15 = load ptr, ptr %14, align 8
  %16 = getelementptr inbounds i8, ptr %15, i64 %10
  %17 = load i8, ptr %16, align 1, !range !14, !noundef !15
  %18 = getelementptr inbounds nuw i8, ptr %2, i64 80
  store i8 %17, ptr %18, align 8
  %19 = add nsw i32 %4, 1
  store i32 %19, ptr %3, align 8
  br label %20

20:                                               ; preds = %1, %7
  %.0 = phi ptr [ %2, %7 ], [ null, %1 ]
  ret ptr %.0
}